; ModuleID = '56/1687.c'
source_filename = "56/1687.c"
target datalayout = "e-m:e-p270:32:32-p271:32:32-p272:64:64-i64:64-f80:128-n8:16:32:64-S128"
target triple = "x86_64-pc-linux-gnu"

@.str = private unnamed_addr constant [3 x i8] c"%d\00", align 1

; Function Attrs: noinline nounwind uwtable
define dso_local i32 @main() #0 {
  %1 = alloca i32, align 4
  %2 = alloca i32, align 4
  %3 = alloca i32, align 4
  %4 = alloca i32, align 4
  %5 = alloca i32, align 4
  %6 = alloca i32, align 4
  %7 = alloca i32, align 4
  store i32 0, i32* %1, align 4
  %8 = call i32 (i8*, ...) @__isoc99_scanf(i8* getelementptr inbounds ([3 x i8], [3 x i8]* @.str, i64 0, i64 0), i32* %2)
  %9 = load i32, i32* %2, align 4
  %10 = icmp sgt i32 %9, 9999
  br i1 %10, label %11, label %65

11:                                               ; preds = %0
  %12 = load i32, i32* %2, align 4
  %13 = sdiv i32 %12, 10000
  store i32 %13, i32* %3, align 4
  %14 = load i32, i32* %2, align 4
  %15 = load i32, i32* %3, align 4
  %16 = mul nsw i32 %15, 10000
  %17 = sub nsw i32 %14, %16
  %18 = sdiv i32 %17, 1000
  store i32 %18, i32* %4, align 4
  %19 = load i32, i32* %2, align 4
  %20 = load i32, i32* %3, align 4
  %21 = mul nsw i32 %20, 10000
  %22 = sub nsw i32 %19, %21
  %23 = load i32, i32* %4, align 4
  %24 = mul nsw i32 %23, 1000
  %25 = sub nsw i32 %22, %24
  %26 = sdiv i32 %25, 100
  store i32 %26, i32* %5, align 4
  %27 = load i32, i32* %2, align 4
  %28 = load i32, i32* %3, align 4
  %29 = mul nsw i32 %28, 10000
  %30 = sub nsw i32 %27, %29
  %31 = load i32, i32* %4, align 4
  %32 = mul nsw i32 %31, 1000
  %33 = sub nsw i32 %30, %32
  %34 = load i32, i32* %5, align 4
  %35 = mul nsw i32 %34, 100
  %36 = sub nsw i32 %33, %35
  %37 = sdiv i32 %36, 10
  store i32 %37, i32* %6, align 4
  %38 = load i32, i32* %2, align 4
  %39 = load i32, i32* %3, align 4
  %40 = mul nsw i32 %39, 10000
  %41 = sub nsw i32 %38, %40
  %42 = load i32, i32* %4, align 4
  %43 = mul nsw i32 %42, 1000
  %44 = sub nsw i32 %41, %43
  %45 = load i32, i32* %5, align 4
  %46 = mul nsw i32 %45, 100
  %47 = sub nsw i32 %44, %46
  %48 = load i32, i32* %6, align 4
  %49 = mul nsw i32 %48, 10
  %50 = sub nsw i32 %47, %49
  store i32 %50, i32* %7, align 4
  %51 = load i32, i32* %7, align 4
  %52 = mul nsw i32 %51, 10000
  %53 = load i32, i32* %6, align 4
  %54 = mul nsw i32 %53, 1000
  %55 = add nsw i32 %52, %54
  %56 = load i32, i32* %5, align 4
  %57 = mul nsw i32 %56, 100
  %58 = add nsw i32 %55, %57
  %59 = load i32, i32* %4, align 4
  %60 = mul nsw i32 %59, 10
  %61 = add nsw i32 %58, %60
  %62 = load i32, i32* %3, align 4
  %63 = add nsw i32 %61, %62
  %64 = call i32 (i8*, ...) @printf(i8* getelementptr inbounds ([3 x i8], [3 x i8]* @.str, i64 0, i64 0), i32 %63)
  br label %152

65:                                               ; preds = %0
  %66 = load i32, i32* %2, align 4
  %67 = icmp sgt i32 %66, 999
  br i1 %67, label %68, label %105

68:                                               ; preds = %65
  %69 = load i32, i32* %2, align 4
  %70 = sdiv i32 %69, 1000
  store i32 %70, i32* %3, align 4
  %71 = load i32, i32* %2, align 4
  %72 = load i32, i32* %3, align 4
  %73 = mul nsw i32 %72, 1000
  %74 = sub nsw i32 %71, %73
  %75 = sdiv i32 %74, 100
  store i32 %75, i32* %4, align 4
  %76 = load i32, i32* %2, align 4
  %77 = load i32, i32* %3, align 4
  %78 = mul nsw i32 %77, 1000
  %79 = sub nsw i32 %76, %78
  %80 = load i32, i32* %4, align 4
  %81 = mul nsw i32 %80, 100
  %82 = sub nsw i32 %79, %81
  %83 = sdiv i32 %82, 10
  store i32 %83, i32* %5, align 4
  %84 = load i32, i32* %2, align 4
  %85 = load i32, i32* %3, align 4
  %86 = mul nsw i32 %85, 1000
  %87 = sub nsw i32 %84, %86
  %88 = load i32, i32* %4, align 4
  %89 = mul nsw i32 %88, 100
  %90 = sub nsw i32 %87, %89
  %91 = load i32, i32* %5, align 4
  %92 = mul nsw i32 %91, 10
  %93 = sub nsw i32 %90, %92
  store i32 %93, i32* %6, align 4
  %94 = load i32, i32* %6, align 4
  %95 = mul nsw i32 %94, 1000
  %96 = load i32, i32* %5, align 4
  %97 = mul nsw i32 %96, 100
  %98 = add nsw i32 %95, %97
  %99 = load i32, i32* %4, align 4
  %100 = mul nsw i32 %99, 10
  %101 = add nsw i32 %98, %100
  %102 = load i32, i32* %3, align 4
  %103 = add nsw i32 %101, %102
  %104 = call i32 (i8*, ...) @printf(i8* getelementptr inbounds ([3 x i8], [3 x i8]* @.str, i64 0, i64 0), i32 %103)
  br label %151

105:                                              ; preds = %65
  %106 = load i32, i32* %2, align 4
  %107 = icmp sgt i32 %106, 99
  br i1 %107, label %108, label %131

108:                                              ; preds = %105
  %109 = load i32, i32* %2, align 4
  %110 = sdiv i32 %109, 100
  store i32 %110, i32* %3, align 4
  %111 = load i32, i32* %2, align 4
  %112 = load i32, i32* %3, align 4
  %113 = mul nsw i32 %112, 100
  %114 = sub nsw i32 %111, %113
  %115 = sdiv i32 %114, 10
  store i32 %115, i32* %4, align 4
  %116 = load i32, i32* %2, align 4
  %117 = load i32, i32* %3, align 4
  %118 = mul nsw i32 %117, 100
  %119 = sub nsw i32 %116, %118
  %120 = load i32, i32* %4, align 4
  %121 = mul nsw i32 %120, 10
  %122 = sub nsw i32 %119, %121
  store i32 %122, i32* %5, align 4
  %123 = load i32, i32* %5, align 4
  %124 = mul nsw i32 %123, 100
  %125 = load i32, i32* %4, align 4
  %126 = mul nsw i32 %125, 10
  %127 = add nsw i32 %124, %126
  %128 = load i32, i32* %3, align 4
  %129 = add nsw i32 %127, %128
  %130 = call i32 (i8*, ...) @printf(i8* getelementptr inbounds ([3 x i8], [3 x i8]* @.str, i64 0, i64 0), i32 %129)
  br label %150

131:                                              ; preds = %105
  %132 = load i32, i32* %2, align 4
  %133 = icmp sgt i32 %132, 9
  br i1 %133, label %134, label %146

134:                                              ; preds = %131
  %135 = load i32, i32* %2, align 4
  %136 = sdiv i32 %135, 10
  store i32 %136, i32* %3, align 4
  %137 = load i32, i32* %2, align 4
  %138 = load i32, i32* %3, align 4
  %139 = mul nsw i32 %138, 10
  %140 = sub nsw i32 %137, %139
  store i32 %140, i32* %4, align 4
  %141 = load i32, i32* %4, align 4
  %142 = mul nsw i32 %141, 10
  %143 = load i32, i32* %3, align 4
  %144 = add nsw i32 %142, %143
  %145 = call i32 (i8*, ...) @printf(i8* getelementptr inbounds ([3 x i8], [3 x i8]* @.str, i64 0, i64 0), i32 %144)
  br label %149

146:                                              ; preds = %131
  %147 = load i32, i32* %2, align 4
  %148 = call i32 (i8*, ...) @printf(i8* getelementptr inbounds ([3 x i8], [3 x i8]* @.str, i64 0, i64 0), i32 %147)
  br label %149

149:                                              ; preds = %146, %134
  br label %150

150:                                              ; preds = %149, %108
  br label %151

151:                                              ; preds = %150, %68
  br label %152

152:                                              ; preds = %151, %11
  %153 = load i32, i32* %1, align 4
  ret i32 %153
}

declare dso_local i32 @__isoc99_scanf(i8*, ...) #1

declare dso_local i32 @printf(i8*, ...) #1


!llvm.module.flags = !{!0}
!llvm.ident = !{!1}

!0 = !{i32 1, !"wchar_size", i32 4}
!1 = !{!"clang version 10.0.0-4ubuntu1 "}
